; ModuleID = 'source-C-CXX/27/62.c'
source_filename = "source-C-CXX/27/62.c"
target datalayout = "e-m:e-p270:32:32-p271:32:32-p272:64:64-i64:64-f80:128-n8:16:32:64-S128"
target triple = "x86_64-pc-linux-gnu"

@.str = private unnamed_addr constant [4 x i8] c"%s \00", align 1
@.str.1 = private unnamed_addr constant [4 x i8] c"%d,\00", align 1
@.str.2 = private unnamed_addr constant [3 x i8] c"%d\00", align 1

; Function Attrs: nofree nounwind sspstrong uwtable
define dso_local void @main() local_unnamed_addr #0 {
  %1 = alloca [300 x [20 x i8]], align 16
  %2 = alloca [300 x i32], align 16
  %3 = getelementptr inbounds [300 x [20 x i8]], [300 x [20 x i8]]* %1, i64 0, i64 0, i64 0
  call void @llvm.lifetime.start.p0i8(i64 6000, i8* nonnull %3) #5
  %4 = bitcast [300 x i32]* %2 to i8*
  call void @llvm.lifetime.start.p0i8(i64 1200, i8* nonnull %4) #5
  br label %5

5:                                                ; preds = %5, %0
  %6 = phi i64 [ %10, %5 ], [ 0, %0 ]
  %7 = getelementptr inbounds [300 x [20 x i8]], [300 x [20 x i8]]* %1, i64 0, i64 %6, i64 0
  %8 = call i32 (i8*, ...) @__isoc99_scanf(i8* getelementptr inbounds ([4 x i8], [4 x i8]* @.str, i64 0, i64 0), i8* nonnull %7)
  %9 = icmp eq i32 %8, -1
  %10 = add nuw i64 %6, 1
  br i1 %9, label %11, label %5, !llvm.loop !5

11:                                               ; preds = %5
  %12 = trunc i64 %6 to i32
  %13 = icmp eq i32 %12, 0
  br i1 %13, label %37, label %14

14:                                               ; preds = %11
  %15 = and i64 %6, 4294967295
  br label %22

16:                                               ; preds = %22
  %17 = add i32 %12, -1
  %18 = icmp ugt i32 %12, 1
  br i1 %18, label %19, label %37

19:                                               ; preds = %16
  %20 = call i32 @llvm.smax.i32(i32 %17, i32 1)
  %21 = zext i32 %20 to i64
  br label %30

22:                                               ; preds = %14, %22
  %23 = phi i64 [ 0, %14 ], [ %28, %22 ]
  %24 = getelementptr inbounds [300 x [20 x i8]], [300 x [20 x i8]]* %1, i64 0, i64 %23, i64 0
  %25 = call i64 @strlen(i8* noundef nonnull %24) #6
  %26 = trunc i64 %25 to i32
  %27 = getelementptr inbounds [300 x i32], [300 x i32]* %2, i64 0, i64 %23
  store i32 %26, i32* %27, align 4, !tbaa !7
  %28 = add nuw nsw i64 %23, 1
  %29 = icmp eq i64 %28, %15
  br i1 %29, label %16, label %22, !llvm.loop !11

30:                                               ; preds = %19, %30
  %31 = phi i64 [ 0, %19 ], [ %35, %30 ]
  %32 = getelementptr inbounds [300 x i32], [300 x i32]* %2, i64 0, i64 %31
  %33 = load i32, i32* %32, align 4, !tbaa !7
  %34 = call i32 (i8*, ...) @printf(i8* nonnull dereferenceable(1) getelementptr inbounds ([4 x i8], [4 x i8]* @.str.1, i64 0, i64 0), i32 %33)
  %35 = add nuw nsw i64 %31, 1
  %36 = icmp eq i64 %35, %21
  br i1 %36, label %37, label %30, !llvm.loop !12

37:                                               ; preds = %30, %11, %16
  %38 = phi i32 [ %17, %16 ], [ -1, %11 ], [ %17, %30 ]
  %39 = sext i32 %38 to i64
  %40 = getelementptr inbounds [300 x i32], [300 x i32]* %2, i64 0, i64 %39
  %41 = load i32, i32* %40, align 4, !tbaa !7
  %42 = call i32 (i8*, ...) @printf(i8* nonnull dereferenceable(1) getelementptr inbounds ([3 x i8], [3 x i8]* @.str.2, i64 0, i64 0), i32 %41)
  call void @llvm.lifetime.end.p0i8(i64 1200, i8* nonnull %4) #5
  call void @llvm.lifetime.end.p0i8(i64 6000, i8* nonnull %3) #5
  ret void
}

; Function Attrs: argmemonly mustprogress nofree nosync nounwind willreturn
declare void @llvm.lifetime.start.p0i8(i64 immarg, i8* nocapture) #1

; Function Attrs: nofree nounwind
declare noundef i32 @__isoc99_scanf(i8* nocapture noundef readonly, ...) local_unnamed_addr #2

; Function Attrs: argmemonly mustprogress nofree nounwind readonly willreturn
declare i64 @strlen(i8* nocapture) local_unnamed_addr #3

; Function Attrs: nofree nounwind
declare noundef i32 @printf(i8* nocapture noundef readonly, ...) local_unnamed_addr #2

; Function Attrs: argmemonly mustprogress nofree nosync nounwind willreturn
declare void @llvm.lifetime.end.p0i8(i64 immarg, i8* nocapture) #1

; Function Attrs: nofree nosync nounwind readnone speculatable willreturn
declare i32 @llvm.smax.i32(i32, i32) #4


!llvm.module.flags = !{!0, !1, !2, !3}
!llvm.ident = !{!4}

!0 = !{i32 1, !"wchar_size", i32 4}
!1 = !{i32 7, !"PIC Level", i32 2}
!2 = !{i32 7, !"PIE Level", i32 2}
!3 = !{i32 7, !"uwtable", i32 1}
!4 = !{!"clang version 13.0.0"}
!5 = distinct !{!5, !6}
!6 = !{!"llvm.loop.mustprogress"}
!7 = !{!8, !8, i64 0}
!8 = !{!"int", !9, i64 0}
!9 = !{!"omnipotent char", !10, i64 0}
!10 = !{!"Simple C/C++ TBAA"}
!11 = distinct !{!11, !6}
!12 = distinct !{!12, !6}
